; Function Attrs: nofree norecurse nosync nounwind memory(argmem: readwrite) uwtable
define internal void @biweight_dirac_pixels8_c(ptr noundef captures(none) %0, ptr noundef readonly captures(none) %1, i32 noundef %2, i32 noundef %3, i32 noundef %4, i32 noundef %5, i32 noundef %6) #1 {
  %.not33 = icmp eq i32 %6, 0
  br i1 %.not33, label %._crit_edge, label %.preheader.lr.ph

.preheader.lr.ph:                                 ; preds = %7
  %8 = add nsw i32 %3, -1
  %9 = shl nuw i32 1, %8
  %10 = sext i32 %2 to i64
  br label %.preheader

.preheader:                                       ; preds = %.preheader.lr.ph, %38
  %.in = phi i32 [ %6, %.preheader.lr.ph ], [ %39, %38 ]
  %.02735 = phi ptr [ %0, %.preheader.lr.ph ], [ %40, %38 ]
  %.02834 = phi ptr [ %1, %.preheader.lr.ph ], [ %41, %38 ]
  %.pre = load i8, ptr %.02735, align 1, !tbaa !11
  br label %11

11:                                               ; preds = %.preheader, %11
  %12 = phi i8 [ %.pre, %.preheader ], [ %.0.i31, %11 ]
  %indvars.iv = phi i64 [ 0, %.preheader ], [ %indvars.iv.next, %11 ]
  %13 = getelementptr inbounds nuw i8, ptr %.02834, i64 %indvars.iv
  %14 = load i8, ptr %13, align 1, !tbaa !11
  %15 = zext i8 %14 to i32
  %16 = mul nsw i32 %5, %15
  %17 = getelementptr inbounds nuw i8, ptr %.02735, i64 %indvars.iv
  %18 = zext i8 %12 to i32
  %19 = mul nsw i32 %4, %18
  %20 = add i32 %16, %9
  %21 = add i32 %20, %19
  %22 = ashr i32 %21, %3
  %.not.i = icmp ult i32 %22, 256
  %isnotneg.i = icmp sgt i32 %22, -1
  %23 = sext i1 %isnotneg.i to i8
  %24 = trunc nuw i32 %22 to i8
  %.0.i = select i1 %.not.i, i8 %24, i8 %23
  store i8 %.0.i, ptr %17, align 1, !tbaa !11
  %indvars.iv.next = add nuw nsw i64 %indvars.iv, 1
  %25 = getelementptr inbounds nuw i8, ptr %.02834, i64 %indvars.iv.next
  %26 = load i8, ptr %25, align 1, !tbaa !11
  %27 = zext i8 %26 to i32
  %28 = mul nsw i32 %5, %27
  %29 = getelementptr inbounds nuw i8, ptr %.02735, i64 %indvars.iv.next
  %30 = load i8, ptr %29, align 1, !tbaa !11
  %31 = zext i8 %30 to i32
  %32 = mul nsw i32 %4, %31
  %33 = add i32 %28, %9
  %34 = add i32 %33, %32
  %35 = ashr i32 %34, %3
  %.not.i29 = icmp ult i32 %35, 256
  %isnotneg.i30 = icmp sgt i32 %35, -1
  %36 = sext i1 %isnotneg.i30 to i8
  %37 = trunc nuw i32 %35 to i8
  %.0.i31 = select i1 %.not.i29, i8 %37, i8 %36
  store i8 %.0.i31, ptr %29, align 1, !tbaa !11
  %exitcond.not = icmp eq i64 %indvars.iv.next, 8
  br i1 %exitcond.not, label %38, label %11, !llvm.loop !41

38:                                               ; preds = %11
  %39 = add nsw i32 %.in, -1
  %40 = getelementptr inbounds i8, ptr %.02735, i64 %10
  %41 = getelementptr inbounds i8, ptr %.02834, i64 %10
  %.not = icmp eq i32 %39, 0
  br i1 %.not, label %._crit_edge, label %.preheader, !llvm.loop !42

._crit_edge:                                      ; preds = %38, %7
  ret void
}